#include <math.h>
#include <stdio.h>
#include <stdlib.h>
#include <string.h>

int main()
{
	int n,i,j;
	int x,y,z;
	char c[35];
	scanf("%d",&n);
	for(i=0;i<n;i++)
	{
		for(j=0;j<35;j++)
		{
			c[j]=0;
		}
		scanf("%s",c);
		x=strlen(c)-1;
		y=x-1;
		z=x-2;
		if(c[x]=='r'&&c[y]=='e') 
		{
			c[x]=0;
			c[y]=0;
		}
		else if(c[x]=='y'&&c[y]=='l')
		{
			c[y]=0;
            c[x]=0;
		}
		else if(c[x]=='g'&&c[y]=='n'&&c[z]=='i')
		{
            c[z]=0;
            c[y]=0;
			c[x]=0;
		}
		printf("%s\n",c);
	}
	return 0;
}
