; ModuleID = '57/2132.c'
source_filename = "57/2132.c"
target datalayout = "e-m:e-p270:32:32-p271:32:32-p272:64:64-i64:64-f80:128-n8:16:32:64-S128"
target triple = "x86_64-pc-linux-gnu"

@.str = private unnamed_addr constant [3 x i8] c"%d\00", align 1
@.str.1 = private unnamed_addr constant [3 x i8] c"%s\00", align 1
@.str.2 = private unnamed_addr constant [4 x i8] c"%s\0A\00", align 1

; Function Attrs: noinline nounwind uwtable
define dso_local i32 @main() #0 {
  %1 = alloca i32, align 4
  %2 = alloca i32, align 4
  %3 = alloca i32, align 4
  %4 = alloca i32, align 4
  %5 = alloca i32, align 4
  %6 = alloca i32, align 4
  %7 = alloca i32, align 4
  %8 = alloca [35 x i8], align 16
  store i32 0, i32* %1, align 4
  %9 = call i32 (i8*, ...) @__isoc99_scanf(i8* getelementptr inbounds ([3 x i8], [3 x i8]* @.str, i64 0, i64 0), i32* %2)
  store i32 0, i32* %3, align 4
  br label %10

10:                                               ; preds = %113, %0
  %11 = load i32, i32* %3, align 4
  %12 = load i32, i32* %2, align 4
  %13 = icmp slt i32 %11, %12
  br i1 %13, label %14, label %116

14:                                               ; preds = %10
  store i32 0, i32* %4, align 4
  br label %15

15:                                               ; preds = %22, %14
  %16 = load i32, i32* %4, align 4
  %17 = icmp slt i32 %16, 35
  br i1 %17, label %18, label %25

18:                                               ; preds = %15
  %19 = load i32, i32* %4, align 4
  %20 = sext i32 %19 to i64
  %21 = getelementptr inbounds [35 x i8], [35 x i8]* %8, i64 0, i64 %20
  store i8 0, i8* %21, align 1
  br label %22

22:                                               ; preds = %18
  %23 = load i32, i32* %4, align 4
  %24 = add nsw i32 %23, 1
  store i32 %24, i32* %4, align 4
  br label %15

25:                                               ; preds = %15
  %26 = getelementptr inbounds [35 x i8], [35 x i8]* %8, i64 0, i64 0
  %27 = call i32 (i8*, ...) @__isoc99_scanf(i8* getelementptr inbounds ([3 x i8], [3 x i8]* @.str.1, i64 0, i64 0), i8* %26)
  %28 = getelementptr inbounds [35 x i8], [35 x i8]* %8, i64 0, i64 0
  %29 = call i64 @strlen(i8* %28) #3
  %30 = sub i64 %29, 1
  %31 = trunc i64 %30 to i32
  store i32 %31, i32* %5, align 4
  %32 = load i32, i32* %5, align 4
  %33 = sub nsw i32 %32, 1
  store i32 %33, i32* %6, align 4
  %34 = load i32, i32* %5, align 4
  %35 = sub nsw i32 %34, 2
  store i32 %35, i32* %7, align 4
  %36 = load i32, i32* %5, align 4
  %37 = sext i32 %36 to i64
  %38 = getelementptr inbounds [35 x i8], [35 x i8]* %8, i64 0, i64 %37
  %39 = load i8, i8* %38, align 1
  %40 = sext i8 %39 to i32
  %41 = icmp eq i32 %40, 114
  br i1 %41, label %42, label %56

42:                                               ; preds = %25
  %43 = load i32, i32* %6, align 4
  %44 = sext i32 %43 to i64
  %45 = getelementptr inbounds [35 x i8], [35 x i8]* %8, i64 0, i64 %44
  %46 = load i8, i8* %45, align 1
  %47 = sext i8 %46 to i32
  %48 = icmp eq i32 %47, 101
  br i1 %48, label %49, label %56

49:                                               ; preds = %42
  %50 = load i32, i32* %5, align 4
  %51 = sext i32 %50 to i64
  %52 = getelementptr inbounds [35 x i8], [35 x i8]* %8, i64 0, i64 %51
  store i8 0, i8* %52, align 1
  %53 = load i32, i32* %6, align 4
  %54 = sext i32 %53 to i64
  %55 = getelementptr inbounds [35 x i8], [35 x i8]* %8, i64 0, i64 %54
  store i8 0, i8* %55, align 1
  br label %110

56:                                               ; preds = %42, %25
  %57 = load i32, i32* %5, align 4
  %58 = sext i32 %57 to i64
  %59 = getelementptr inbounds [35 x i8], [35 x i8]* %8, i64 0, i64 %58
  %60 = load i8, i8* %59, align 1
  %61 = sext i8 %60 to i32
  %62 = icmp eq i32 %61, 121
  br i1 %62, label %63, label %77

63:                                               ; preds = %56
  %64 = load i32, i32* %6, align 4
  %65 = sext i32 %64 to i64
  %66 = getelementptr inbounds [35 x i8], [35 x i8]* %8, i64 0, i64 %65
  %67 = load i8, i8* %66, align 1
  %68 = sext i8 %67 to i32
  %69 = icmp eq i32 %68, 108
  br i1 %69, label %70, label %77

70:                                               ; preds = %63
  %71 = load i32, i32* %6, align 4
  %72 = sext i32 %71 to i64
  %73 = getelementptr inbounds [35 x i8], [35 x i8]* %8, i64 0, i64 %72
  store i8 0, i8* %73, align 1
  %74 = load i32, i32* %5, align 4
  %75 = sext i32 %74 to i64
  %76 = getelementptr inbounds [35 x i8], [35 x i8]* %8, i64 0, i64 %75
  store i8 0, i8* %76, align 1
  br label %109

77:                                               ; preds = %63, %56
  %78 = load i32, i32* %5, align 4
  %79 = sext i32 %78 to i64
  %80 = getelementptr inbounds [35 x i8], [35 x i8]* %8, i64 0, i64 %79
  %81 = load i8, i8* %80, align 1
  %82 = sext i8 %81 to i32
  %83 = icmp eq i32 %82, 103
  br i1 %83, label %84, label %108

84:                                               ; preds = %77
  %85 = load i32, i32* %6, align 4
  %86 = sext i32 %85 to i64
  %87 = getelementptr inbounds [35 x i8], [35 x i8]* %8, i64 0, i64 %86
  %88 = load i8, i8* %87, align 1
  %89 = sext i8 %88 to i32
  %90 = icmp eq i32 %89, 110
  br i1 %90, label %91, label %108

91:                                               ; preds = %84
  %92 = load i32, i32* %7, align 4
  %93 = sext i32 %92 to i64
  %94 = getelementptr inbounds [35 x i8], [35 x i8]* %8, i64 0, i64 %93
  %95 = load i8, i8* %94, align 1
  %96 = sext i8 %95 to i32
  %97 = icmp eq i32 %96, 105
  br i1 %97, label %98, label %108

98:                                               ; preds = %91
  %99 = load i32, i32* %7, align 4
  %100 = sext i32 %99 to i64
  %101 = getelementptr inbounds [35 x i8], [35 x i8]* %8, i64 0, i64 %100
  store i8 0, i8* %101, align 1
  %102 = load i32, i32* %6, align 4
  %103 = sext i32 %102 to i64
  %104 = getelementptr inbounds [35 x i8], [35 x i8]* %8, i64 0, i64 %103
  store i8 0, i8* %104, align 1
  %105 = load i32, i32* %5, align 4
  %106 = sext i32 %105 to i64
  %107 = getelementptr inbounds [35 x i8], [35 x i8]* %8, i64 0, i64 %106
  store i8 0, i8* %107, align 1
  br label %108

108:                                              ; preds = %98, %91, %84, %77
  br label %109

109:                                              ; preds = %108, %70
  br label %110

110:                                              ; preds = %109, %49
  %111 = getelementptr inbounds [35 x i8], [35 x i8]* %8, i64 0, i64 0
  %112 = call i32 (i8*, ...) @printf(i8* getelementptr inbounds ([4 x i8], [4 x i8]* @.str.2, i64 0, i64 0), i8* %111)
  br label %113

113:                                              ; preds = %110
  %114 = load i32, i32* %3, align 4
  %115 = add nsw i32 %114, 1
  store i32 %115, i32* %3, align 4
  br label %10

116:                                              ; preds = %10
  ret i32 0
}

declare dso_local i32 @__isoc99_scanf(i8*, ...) #1

; Function Attrs: nounwind readonly
declare dso_local i64 @strlen(i8*) #2

declare dso_local i32 @printf(i8*, ...) #1


!llvm.module.flags = !{!0}
!llvm.ident = !{!1}

!0 = !{i32 1, !"wchar_size", i32 4}
!1 = !{!"clang version 10.0.0-4ubuntu1 "}
